(dp1
S'failed'
p2
(lp3
S'6'
asS'source_names'
p4
(lp5
S'.'
asS'ids'
p6
(dp7
I1
(S'/home/noitapicname/.qgis2/python/plugins/HandGestures/test/test_hand_gestures_dockwidget.py'
S'HandGestures.test.test_hand_gestures_dockwidget'
S'HandGesturesDockWidgetTest.test_dockwidget_ok'
tp8
sI2
(S'/home/noitapicname/.qgis2/python/plugins/HandGestures/test/test_init.py'
S'HandGestures.test.test_init'
S'TestInit.test_read_init'
tp9
sI3
(S'/home/noitapicname/.qgis2/python/plugins/HandGestures/test/test_qgis_environment.py'
S'HandGestures.test.test_qgis_environment'
p10
S'QGISTest.test_projection'
tp11
sI4
(S'/home/noitapicname/.qgis2/python/plugins/HandGestures/test/test_qgis_environment.py'
g10
S'QGISTest.test_qgis_environment'
tp12
sI5
(S'/home/noitapicname/.qgis2/python/plugins/HandGestures/test/test_resources.py'
S'HandGestures.test.test_resources'
S'HandGesturesDialogTest.test_icon_png'
tp13
sI6
(S'/home/noitapicname/.qgis2/python/plugins/HandGestures/test/test_translations.py'
S'HandGestures.test.test_translations'
S'SafeTranslationsTest.test_qgis_translations'
tp14
ss.